target datalayout = "e-m:e-p270:32:32-p271:32:32-p272:64:64-i64:64-i128:128-f80:128-n8:16:32:64-S128"
target triple = "x86_64-pc-linux-gnu"

%struct.tds_conv_info_t = type { ptr, i32, i32, i32, i32, i32, i32, i32, i32, i8 }

@hf_tds_type_varbyte_data_double = internal global i32 0, align 4
@.str.1354 = private unnamed_addr constant [5 x i8] c"%.4f\00", align 1

; Function Attrs: nounwind null_pointer_is_valid sspstrong uwtable
define internal i32 @tds_get_int4_encoding(ptr noundef %0) #5 {
  %2 = alloca ptr, align 8
  store ptr %0, ptr %2, align 8
  %3 = load ptr, ptr %2, align 8
  %4 = getelementptr inbounds nuw %struct.tds_conv_info_t, ptr %3, i32 0, i32 5
  %5 = load i32, ptr %4, align 8
  %6 = icmp eq i32 %5, 0
  %7 = select i1 %6, i32 0, i32 -2147483648
  ret i32 %7
}

; Function Attrs: null_pointer_is_valid sspstrong uwtable
define internal void @handle_tds_sql_money(ptr noundef %0, i32 noundef %1, ptr noundef %2, ptr noundef %3) #0 {
  %5 = alloca ptr, align 8
  %6 = alloca i32, align 4
  %7 = alloca ptr, align 8
  %8 = alloca ptr, align 8
  %9 = alloca i64, align 8
  %10 = alloca double, align 8
  store ptr %0, ptr %5, align 8
  store i32 %1, ptr %6, align 4
  store ptr %2, ptr %7, align 8
  store ptr %3, ptr %8, align 8
  call void @llvm.lifetime.start.p0(i64 8, ptr %9) #11
  %11 = load ptr, ptr %5, align 8
  %12 = load i32, ptr %6, align 4
  %13 = load ptr, ptr %8, align 8
  %14 = call i32 @tds_get_int4_encoding(ptr noundef %13)
  %15 = call i32 @tvb_get_uint32(ptr noundef %11, i32 noundef %12, i32 noundef %14)
  %16 = zext i32 %15 to i64
  store i64 %16, ptr %9, align 8
  call void @llvm.lifetime.start.p0(i64 8, ptr %10) #11
  %17 = load i64, ptr %9, align 8
  %18 = shl i64 %17, 32
  %19 = load ptr, ptr %5, align 8
  %20 = load i32, ptr %6, align 4
  %21 = add i32 %20, 4
  %22 = load ptr, ptr %8, align 8
  %23 = call i32 @tds_get_int4_encoding(ptr noundef %22)
  %24 = call i32 @tvb_get_uint32(ptr noundef %19, i32 noundef %21, i32 noundef %23)
  %25 = zext i32 %24 to i64
  %26 = add i64 %18, %25
  %27 = uitofp i64 %26 to double
  store double %27, ptr %10, align 8
  %28 = load ptr, ptr %7, align 8
  %29 = load i32, ptr @hf_tds_type_varbyte_data_double, align 4
  %30 = load ptr, ptr %5, align 8
  %31 = load i32, ptr %6, align 4
  %32 = load double, ptr %10, align 8
  %33 = load double, ptr %10, align 8
  %34 = fdiv double %33, 1.000000e+04
  %35 = call ptr (ptr, i32, ptr, i32, i32, double, ptr, ...) @proto_tree_add_double_format_value(ptr noundef %28, i32 noundef %29, ptr noundef %30, i32 noundef %31, i32 noundef 8, double noundef %32, ptr noundef @.str.1354, double noundef %34)
  call void @llvm.lifetime.end.p0(i64 8, ptr %10) #11
  call void @llvm.lifetime.end.p0(i64 8, ptr %9) #11
  ret void
}