; Function Attrs: null_pointer_is_valid sspstrong uwtable
define internal fastcc void @handle_tds_sql_money(ptr noundef nonnull %0, i32 noundef %1, ptr noundef %2, ptr noundef readonly captures(none) %3) unnamed_addr #0 {
  %5 = getelementptr i8, ptr %3, i64 24
  %.val11 = load i32, ptr %5, align 8
  %6 = icmp eq i32 %.val11, 0
  %7 = select i1 %6, i32 0, i32 -2147483648
  %8 = tail call i32 @tvb_get_uint32(ptr noundef nonnull %0, i32 noundef %1, i32 noundef %7)
  %9 = zext i32 %8 to i64
  %10 = shl nuw i64 %9, 32
  %11 = add i32 %1, 4
  %.val = load i32, ptr %5, align 8
  %12 = icmp eq i32 %.val, 0
  %13 = select i1 %12, i32 0, i32 -2147483648
  %14 = tail call i32 @tvb_get_uint32(ptr noundef nonnull %0, i32 noundef %11, i32 noundef %13)
  %15 = zext i32 %14 to i64
  %16 = or disjoint i64 %10, %15
  %17 = uitofp i64 %16 to double
  %18 = load i32, ptr @hf_tds_type_varbyte_data_double, align 4
  %19 = fdiv double %17, 1.000000e+04
  %20 = tail call ptr (ptr, i32, ptr, i32, i32, double, ptr, ...) @proto_tree_add_double_format_value(ptr noundef %2, i32 noundef %18, ptr noundef nonnull %0, i32 noundef %1, i32 noundef 8, double noundef %17, ptr noundef nonnull @.str.1354, double noundef %19)
  ret void
}